; Function Attrs: mustprogress nounwind uwtable
define dso_local void @_ZN4node4quic12RegularTokenC2EjRKNS_13SocketAddressERKNS0_11TokenSecretE(ptr noundef nonnull align 8 dereferenceable(88) %this, i32 %version, ptr noundef nonnull align 8 dereferenceable(136) %address, ptr noundef nonnull align 8 dereferenceable(24) %token_secret) unnamed_addr #3 align 2 {
entry:
  store ptr getelementptr inbounds ({ [10 x ptr] }, ptr @_ZTVN4node4quic12RegularTokenE, i64 0, i32 0, i64 2), ptr %this, align 8
  %buf_ = getelementptr inbounds i8, ptr %this, i64 8
  tail call void @llvm.memset.p0.i64(ptr noundef nonnull align 8 dereferenceable(57) %buf_, i8 0, i64 57, i1 false)
  %ptr_ = getelementptr inbounds i8, ptr %this, i64 72
  %buf_.i.i = getelementptr inbounds i8, ptr %token_secret, i64 8
  %address_.i.i = getelementptr inbounds i8, ptr %address, i64 8
  %0 = load i16, ptr %address_.i.i, align 8
  %cmp.i.i.i.i = icmp eq i16 %0, 2
  %conv.i = select i1 %cmp.i.i.i.i, i32 16, i32 28
  %call3.i = tail call i64 @uv_hrtime() #17
  %call4.i = tail call i64 @ngtcp2_crypto_generate_regular_token(ptr noundef nonnull %buf_, ptr noundef nonnull %buf_.i.i, i64 noundef 16, ptr noundef nonnull %address_.i.i, i32 noundef %conv.i, i64 noundef %call3.i) #17
  %cmp.i = icmp eq i64 %call4.i, 0
  %.buffer.i = select i1 %cmp.i, ptr null, ptr %buf_
  store ptr %.buffer.i, ptr %ptr_, align 8
  %1 = getelementptr inbounds i8, ptr %this, i64 80
  store i64 %call4.i, ptr %1, align 8
  ret void
}